; Function Attrs: nounwind uwtable
define internal fastcc ptr @expr(ptr nocapture noundef writeonly %rest, ptr noundef %tok) unnamed_addr #0 {
entry:
  %tok.addr = alloca ptr, align 8
  store ptr %tok, ptr %tok.addr, align 8
  %call = call fastcc ptr @assign(ptr noundef nonnull %tok.addr, ptr noundef %tok)
  %0 = load ptr, ptr %tok.addr, align 8
  %call1 = call zeroext i1 @equal(ptr noundef %0, ptr noundef nonnull @.str.57) #13
  %1 = load ptr, ptr %tok.addr, align 8
  br i1 %call1, label %if.then, label %if.end

if.then:                                          ; preds = %entry
  %next = getelementptr inbounds %struct.Token, ptr %1, i64 0, i32 1
  %2 = load ptr, ptr %next, align 8
  %call2 = call fastcc ptr @expr(ptr noundef %rest, ptr noundef %2)
  %3 = load ptr, ptr %tok.addr, align 8
  %call.i.i = call noalias noundef dereferenceable_or_null(288) ptr @calloc(i64 noundef 1, i64 noundef 288) #14
  store i32 18, ptr %call.i.i, align 16
  %tok2.i.i = getelementptr inbounds %struct.Node, ptr %call.i.i, i64 0, i32 3
  store ptr %3, ptr %tok2.i.i, align 8
  %lhs1.i = getelementptr inbounds %struct.Node, ptr %call.i.i, i64 0, i32 4
  store ptr %call, ptr %lhs1.i, align 16
  %rhs2.i = getelementptr inbounds %struct.Node, ptr %call.i.i, i64 0, i32 5
  store ptr %call2, ptr %rhs2.i, align 8
  br label %return

if.end:                                           ; preds = %entry
  store ptr %1, ptr %rest, align 8
  br label %return

return:                                           ; preds = %if.end, %if.then
  %retval.0 = phi ptr [ %call.i.i, %if.then ], [ %call, %if.end ]
  ret ptr %retval.0
}